target datalayout = "e-m:e-p270:32:32-p271:32:32-p272:64:64-i64:64-i128:128-f80:128-n8:16:32:64-S128"
target triple = "x86_64-unknown-linux-gnu"

%"struct.std::_Vector_base.10" = type { %"struct.std::_Vector_base<double, std::allocator<double>>::_Vector_impl" }
%"struct.std::_Vector_base<double, std::allocator<double>>::_Vector_impl" = type { %"struct.std::_Vector_base<double, std::allocator<double>>::_Vector_impl_data" }
%"struct.std::_Vector_base<double, std::allocator<double>>::_Vector_impl_data" = type { ptr, ptr, ptr }

; Function Attrs: mustprogress nounwind uwtable
define linkonce_odr hidden noundef nonnull align 8 dereferenceable(8) ptr @_ZNKSt6vectorIdSaIdEEixEm(ptr noundef nonnull align 8 dereferenceable(24) %this, i64 noundef %__n) #5 comdat align 2 {
entry:
  %this.addr = alloca ptr, align 8
  %__n.addr = alloca i64, align 8
  store ptr %this, ptr %this.addr, align 8
  store i64 %__n, ptr %__n.addr, align 8
  %this1 = load ptr, ptr %this.addr, align 8
  %_M_impl = getelementptr inbounds %"struct.std::_Vector_base.10", ptr %this1, i32 0, i32 0
  %_M_start = getelementptr inbounds %"struct.std::_Vector_base<double, std::allocator<double>>::_Vector_impl_data", ptr %_M_impl, i32 0, i32 0
  %0 = load ptr, ptr %_M_start, align 8
  %1 = load i64, ptr %__n.addr, align 8
  %add.ptr = getelementptr inbounds double, ptr %0, i64 %1
  ret ptr %add.ptr
}

; Function Attrs: mustprogress nounwind uwtable
define internal noundef zeroext i1 @_ZN19OpenColorIO_v2_4dev12_GLOBAL__N_118IsMonCurveIdentityERKSt6vectorIdSaIdEE(ptr noundef nonnull align 8 dereferenceable(24) %p) #5 {
entry:
  %p.addr = alloca ptr, align 8
  store ptr %p, ptr %p.addr, align 8
  %0 = load ptr, ptr %p.addr, align 8
  %call = call noundef nonnull align 8 dereferenceable(8) ptr @_ZNKSt6vectorIdSaIdEEixEm(ptr noundef nonnull align 8 dereferenceable(24) %0, i64 noundef 0) #3
  %1 = load double, ptr %call, align 8
  %cmp = fcmp oeq double %1, 1.000000e+00
  br i1 %cmp, label %land.rhs, label %land.end

land.rhs:                                         ; preds = %entry
  %2 = load ptr, ptr %p.addr, align 8
  %call1 = call noundef nonnull align 8 dereferenceable(8) ptr @_ZNKSt6vectorIdSaIdEEixEm(ptr noundef nonnull align 8 dereferenceable(24) %2, i64 noundef 1) #3
  %3 = load double, ptr %call1, align 8
  %cmp2 = fcmp oeq double %3, 0.000000e+00
  br label %land.end

land.end:                                         ; preds = %land.rhs, %entry
  %4 = phi i1 [ false, %entry ], [ %cmp2, %land.rhs ]
  ret i1 %4
}

; Function Attrs: mustprogress nounwind uwtable
define internal noundef zeroext i1 @_ZN19OpenColorIO_v2_4dev12_GLOBAL__N_115IsBasicIdentityERKSt6vectorIdSaIdEE(ptr noundef nonnull align 8 dereferenceable(24) %p) #5 {
entry:
  %p.addr = alloca ptr, align 8
  store ptr %p, ptr %p.addr, align 8
  %0 = load ptr, ptr %p.addr, align 8
  %call = call noundef nonnull align 8 dereferenceable(8) ptr @_ZNKSt6vectorIdSaIdEEixEm(ptr noundef nonnull align 8 dereferenceable(24) %0, i64 noundef 0) #3
  %1 = load double, ptr %call, align 8
  %cmp = fcmp oeq double %1, 1.000000e+00
  ret i1 %cmp
}

; Function Attrs: mustprogress nounwind uwtable
define linkonce_odr hidden noundef i64 @_ZNKSt6vectorIdSaIdEE4sizeEv(ptr noundef nonnull align 8 dereferenceable(24) %this) #5 comdat align 2 {
entry:
  %this.addr = alloca ptr, align 8
  store ptr %this, ptr %this.addr, align 8
  %this1 = load ptr, ptr %this.addr, align 8
  %_M_impl = getelementptr inbounds %"struct.std::_Vector_base.10", ptr %this1, i32 0, i32 0
  %_M_finish = getelementptr inbounds %"struct.std::_Vector_base<double, std::allocator<double>>::_Vector_impl_data", ptr %_M_impl, i32 0, i32 1
  %0 = load ptr, ptr %_M_finish, align 8
  %_M_impl2 = getelementptr inbounds %"struct.std::_Vector_base.10", ptr %this1, i32 0, i32 0
  %_M_start = getelementptr inbounds %"struct.std::_Vector_base<double, std::allocator<double>>::_Vector_impl_data", ptr %_M_impl2, i32 0, i32 0
  %1 = load ptr, ptr %_M_start, align 8
  %sub.ptr.lhs.cast = ptrtoint ptr %0 to i64
  %sub.ptr.rhs.cast = ptrtoint ptr %1 to i64
  %sub.ptr.sub = sub i64 %sub.ptr.lhs.cast, %sub.ptr.rhs.cast
  %sub.ptr.div = sdiv exact i64 %sub.ptr.sub, 8
  ret i64 %sub.ptr.div
}

; Function Attrs: mustprogress uwtable
define hidden noundef zeroext i1 @_ZN19OpenColorIO_v2_4dev11GammaOpData20isIdentityParametersERKSt6vectorIdSaIdEENS0_5StyleE(ptr noundef nonnull align 8 dereferenceable(24) %parameters, i32 noundef %style) #4 align 2 {
entry:
  %retval = alloca i1, align 1
  %parameters.addr = alloca ptr, align 8
  %style.addr = alloca i32, align 4
  store ptr %parameters, ptr %parameters.addr, align 8
  store i32 %style, ptr %style.addr, align 4
  %0 = load i32, ptr %style.addr, align 4
  switch i32 %0, label %sw.epilog [
    i32 0, label %sw.bb
    i32 1, label %sw.bb
    i32 2, label %sw.bb
    i32 3, label %sw.bb
    i32 4, label %sw.bb
    i32 5, label %sw.bb
    i32 6, label %sw.bb2
    i32 7, label %sw.bb2
    i32 8, label %sw.bb2
    i32 9, label %sw.bb2
  ]

sw.bb:                                            ; preds = %entry, %entry, %entry, %entry, %entry, %entry
  %1 = load ptr, ptr %parameters.addr, align 8
  %call = call noundef i64 @_ZNKSt6vectorIdSaIdEE4sizeEv(ptr noundef nonnull align 8 dereferenceable(24) %1) #3
  %cmp = icmp eq i64 %call, 1
  br i1 %cmp, label %land.rhs, label %land.end

land.rhs:                                         ; preds = %sw.bb
  %2 = load ptr, ptr %parameters.addr, align 8
  %call1 = call noundef zeroext i1 @_ZN19OpenColorIO_v2_4dev12_GLOBAL__N_115IsBasicIdentityERKSt6vectorIdSaIdEE(ptr noundef nonnull align 8 dereferenceable(24) %2)
  br label %land.end

land.end:                                         ; preds = %land.rhs, %sw.bb
  %3 = phi i1 [ false, %sw.bb ], [ %call1, %land.rhs ]
  store i1 %3, ptr %retval, align 1
  br label %return

sw.bb2:                                           ; preds = %entry, %entry, %entry, %entry
  %4 = load ptr, ptr %parameters.addr, align 8
  %call3 = call noundef i64 @_ZNKSt6vectorIdSaIdEE4sizeEv(ptr noundef nonnull align 8 dereferenceable(24) %4) #3
  %cmp4 = icmp eq i64 %call3, 2
  br i1 %cmp4, label %land.rhs5, label %land.end7

land.rhs5:                                        ; preds = %sw.bb2
  %5 = load ptr, ptr %parameters.addr, align 8
  %call6 = call noundef zeroext i1 @_ZN19OpenColorIO_v2_4dev12_GLOBAL__N_118IsMonCurveIdentityERKSt6vectorIdSaIdEE(ptr noundef nonnull align 8 dereferenceable(24) %5)
  br label %land.end7

land.end7:                                        ; preds = %land.rhs5, %sw.bb2
  %6 = phi i1 [ false, %sw.bb2 ], [ %call6, %land.rhs5 ]
  store i1 %6, ptr %retval, align 1
  br label %return

sw.epilog:                                        ; preds = %entry
  store i1 false, ptr %retval, align 1
  br label %return

return:                                           ; preds = %sw.epilog, %land.end7, %land.end
  %7 = load i1, ptr %retval, align 1
  ret i1 %7
}