; Function Attrs: mustprogress nofree norecurse nosync nounwind willreturn memory(read, inaccessiblemem: none) uwtable
define hidden noundef zeroext i1 @_ZN19OpenColorIO_v2_4dev11GammaOpData20isIdentityParametersERKSt6vectorIdSaIdEENS0_5StyleE(ptr nocapture noundef nonnull readonly align 8 dereferenceable(24) %parameters, i32 noundef %style) local_unnamed_addr #7 align 2 {
entry:
  switch i32 %style, label %return [
    i32 0, label %sw.bb
    i32 1, label %sw.bb
    i32 2, label %sw.bb
    i32 3, label %sw.bb
    i32 4, label %sw.bb
    i32 5, label %sw.bb
    i32 6, label %sw.bb2
    i32 7, label %sw.bb2
    i32 8, label %sw.bb2
    i32 9, label %sw.bb2
  ]

sw.bb:                                            ; preds = %entry, %entry, %entry, %entry, %entry, %entry
  %_M_finish.i = getelementptr inbounds i8, ptr %parameters, i64 8
  %0 = load ptr, ptr %_M_finish.i, align 8
  %1 = load ptr, ptr %parameters, align 8
  %sub.ptr.lhs.cast.i = ptrtoint ptr %0 to i64
  %sub.ptr.rhs.cast.i = ptrtoint ptr %1 to i64
  %sub.ptr.sub.i = sub i64 %sub.ptr.lhs.cast.i, %sub.ptr.rhs.cast.i
  %cmp = icmp eq i64 %sub.ptr.sub.i, 8
  br i1 %cmp, label %return.sink.split, label %return

sw.bb2:                                           ; preds = %entry, %entry, %entry, %entry
  %_M_finish.i5 = getelementptr inbounds i8, ptr %parameters, i64 8
  %2 = load ptr, ptr %_M_finish.i5, align 8
  %3 = load ptr, ptr %parameters, align 8
  %sub.ptr.lhs.cast.i6 = ptrtoint ptr %2 to i64
  %sub.ptr.rhs.cast.i7 = ptrtoint ptr %3 to i64
  %sub.ptr.sub.i8 = sub i64 %sub.ptr.lhs.cast.i6, %sub.ptr.rhs.cast.i7
  %cmp4 = icmp eq i64 %sub.ptr.sub.i8, 16
  br i1 %cmp4, label %land.rhs5, label %return

land.rhs5:                                        ; preds = %sw.bb2
  %4 = load double, ptr %3, align 8
  %cmp.i10 = fcmp oeq double %4, 1.000000e+00
  br i1 %cmp.i10, label %land.rhs.i, label %return

land.rhs.i:                                       ; preds = %land.rhs5
  %add.ptr.i.i = getelementptr inbounds i8, ptr %3, i64 8
  br label %return.sink.split

return.sink.split:                                ; preds = %sw.bb, %land.rhs.i
  %add.ptr.i.i.sink = phi ptr [ %add.ptr.i.i, %land.rhs.i ], [ %1, %sw.bb ]
  %.sink11 = phi double [ 0.000000e+00, %land.rhs.i ], [ 1.000000e+00, %sw.bb ]
  %5 = load double, ptr %add.ptr.i.i.sink, align 8
  %cmp2.i = fcmp oeq double %5, %.sink11
  br label %return

return:                                           ; preds = %return.sink.split, %land.rhs5, %entry, %sw.bb2, %sw.bb
  %retval.0 = phi i1 [ false, %sw.bb ], [ false, %sw.bb2 ], [ false, %entry ], [ false, %land.rhs5 ], [ %cmp2.i, %return.sink.split ]
  ret i1 %retval.0
}